target datalayout = "e-m:e-p270:32:32-p271:32:32-p272:64:64-i64:64-i128:128-f80:128-n8:16:32:64-S128"
target triple = "x86_64-pc-linux-gnu"

%struct.node_record = type { ptr, ptr, i16, i64, i64, ptr, ptr, ptr, i16, ptr, i16, i16, i32, i32, i64, ptr, i16, i16, ptr, ptr, ptr, ptr, ptr, i64, i64, ptr, ptr, ptr, ptr, i32, ptr, ptr, i64, i64, i32, ptr, i64, ptr, i32, i16, ptr, ptr, i32, ptr, i32, i8, ptr, i32, i16, i16, ptr, i16, i64, i16, i64, ptr, i64, i32, i16, i64, i16, ptr, i16, i64, ptr, i64, i16, i32, i16, ptr, ptr, ptr, i16, i32, i16, i16, i32, ptr, i16, i32 }
%struct.config_record_t = type { i16, i16, i16, i32, ptr, i16, ptr, ptr, i32, i64, ptr, ptr, i64, i16, i16, i32, i16, ptr, ptr, i32 }

@config_list = external global ptr, align 8
@.str.51 = private unnamed_addr constant [27 x i8] c"%s: invalid node_name (%s)\00", align 1
@update_node_avail_features.last_avail_features = internal global ptr null, align 8
@update_node_avail_features.last_node_bitmap = internal global ptr null, align 8
@__func__.update_node_avail_features = private unnamed_addr constant [27 x i8] c"update_node_avail_features\00", align 1
@avail_feature_list = external global ptr, align 8
@.str.53 = private unnamed_addr constant [10 x i8] c"available\00", align 1

; Function Attrs: nounwind uwtable
define internal void @_update_config_ptr(ptr noundef %0, ptr noundef %1) #0 {
  %3 = alloca ptr, align 8
  %4 = alloca ptr, align 8
  %5 = alloca ptr, align 8
  %6 = alloca i32, align 4
  store ptr %0, ptr %3, align 8
  store ptr %1, ptr %4, align 8
  call void @llvm.lifetime.start.p0(i64 8, ptr %5) #10
  call void @llvm.lifetime.start.p0(i64 4, ptr %6) #10
  store i32 0, ptr %6, align 4
  br label %7

7:                                                ; preds = %16, %2
  %8 = load ptr, ptr %3, align 8
  %9 = call ptr @next_node_bitmap(ptr noundef %8, ptr noundef %6)
  store ptr %9, ptr %5, align 8
  %10 = icmp ne ptr %9, null
  br i1 %10, label %12, label %11

11:                                               ; preds = %7
  call void @llvm.lifetime.end.p0(i64 4, ptr %6) #10
  br label %19

12:                                               ; preds = %7
  %13 = load ptr, ptr %4, align 8
  %14 = load ptr, ptr %5, align 8
  %15 = getelementptr inbounds nuw %struct.node_record, ptr %14, i32 0, i32 9
  store ptr %13, ptr %15, align 8
  br label %16

16:                                               ; preds = %12
  %17 = load i32, ptr %6, align 4
  %18 = add nsw i32 %17, 1
  store i32 %18, ptr %6, align 4
  br label %7, !llvm.loop !27

19:                                               ; preds = %11
  call void @llvm.lifetime.end.p0(i64 8, ptr %5) #10
  ret void
}

; Function Attrs: nounwind uwtable
define dso_local i32 @update_node_avail_features(ptr noundef %0, ptr noundef %1, i32 noundef %2) #0 {
  %4 = alloca i32, align 4
  %5 = alloca ptr, align 8
  %6 = alloca ptr, align 8
  %7 = alloca i32, align 4
  %8 = alloca ptr, align 8
  %9 = alloca ptr, align 8
  %10 = alloca ptr, align 8
  %11 = alloca ptr, align 8
  %12 = alloca ptr, align 8
  %13 = alloca ptr, align 8
  %14 = alloca i32, align 4
  %15 = alloca i32, align 4
  %16 = alloca i32, align 4
  %17 = alloca i32, align 4
  store ptr %0, ptr %5, align 8
  store ptr %1, ptr %6, align 8
  store i32 %2, ptr %7, align 4
  call void @llvm.lifetime.start.p0(i64 8, ptr %8) #10
  store ptr null, ptr %8, align 8
  call void @llvm.lifetime.start.p0(i64 8, ptr %9) #10
  call void @llvm.lifetime.start.p0(i64 8, ptr %10) #10
  call void @llvm.lifetime.start.p0(i64 8, ptr %11) #10
  call void @llvm.lifetime.start.p0(i64 8, ptr %12) #10
  call void @llvm.lifetime.start.p0(i64 8, ptr %13) #10
  store ptr null, ptr %13, align 8
  call void @llvm.lifetime.start.p0(i64 4, ptr %14) #10
  call void @llvm.lifetime.start.p0(i64 4, ptr %15) #10
  call void @llvm.lifetime.start.p0(i64 4, ptr %16) #10
  %18 = load i32, ptr %7, align 4
  %19 = icmp slt i32 %18, 2
  br i1 %19, label %20, label %151

20:                                               ; preds = %3
  %21 = load ptr, ptr %5, align 8
  %22 = call i32 @node_name2bitmap(ptr noundef %21, i1 noundef zeroext false, ptr noundef %8, ptr noundef null)
  store i32 %22, ptr %14, align 4
  %23 = load i32, ptr %14, align 4
  %24 = icmp ne i32 %23, 0
  br i1 %24, label %25, label %38

25:                                               ; preds = %20
  br label %26

26:                                               ; preds = %25
  br label %27

27:                                               ; preds = %26
  %28 = call i32 @get_log_level()
  %29 = icmp sge i32 %28, 3
  br i1 %29, label %30, label %32

30:                                               ; preds = %27
  %31 = load ptr, ptr %5, align 8
  call void (i32, ptr, ...) @log_var(i32 noundef 3, ptr noundef @.str.51, ptr noundef @__func__.update_node_avail_features, ptr noundef %31)
  br label %32

32:                                               ; preds = %30, %27
  br label %33

33:                                               ; preds = %32
  br label %34

34:                                               ; preds = %33
  br label %35

35:                                               ; preds = %34
  br label %36

36:                                               ; preds = %35
  %37 = load i32, ptr %14, align 4
  store i32 %37, ptr %4, align 4
  store i32 1, ptr %17, align 4
  br label %162

38:                                               ; preds = %20
  %39 = load ptr, ptr @config_list, align 8
  %40 = call ptr @list_iterator_create(ptr noundef %39)
  store ptr %40, ptr %10, align 8
  br label %41

41:                                               ; preds = %141, %38
  %42 = load ptr, ptr %10, align 8
  %43 = call ptr @list_next(ptr noundef %42)
  store ptr %43, ptr %11, align 8
  %44 = icmp ne ptr %43, null
  br i1 %44, label %45, label %142

45:                                               ; preds = %41
  %46 = load ptr, ptr %11, align 8
  %47 = load ptr, ptr %13, align 8
  %48 = icmp eq ptr %46, %47
  br i1 %48, label %49, label %50

49:                                               ; preds = %45
  br label %142

50:                                               ; preds = %45
  %51 = load ptr, ptr %8, align 8
  %52 = call ptr @bit_copy(ptr noundef %51)
  store ptr %52, ptr %9, align 8
  %53 = load ptr, ptr %9, align 8
  %54 = load ptr, ptr %11, align 8
  %55 = getelementptr inbounds nuw %struct.config_record_t, ptr %54, i32 0, i32 10
  %56 = load ptr, ptr %55, align 8
  call void @bit_and(ptr noundef %53, ptr noundef %56)
  %57 = load ptr, ptr %11, align 8
  %58 = getelementptr inbounds nuw %struct.config_record_t, ptr %57, i32 0, i32 10
  %59 = load ptr, ptr %58, align 8
  %60 = call i32 @bit_set_count(ptr noundef %59)
  store i32 %60, ptr %15, align 4
  %61 = load ptr, ptr %9, align 8
  %62 = call i32 @bit_set_count(ptr noundef %61)
  store i32 %62, ptr %16, align 4
  %63 = load i32, ptr %16, align 4
  %64 = icmp eq i32 %63, 0
  br i1 %64, label %65, label %66

65:                                               ; preds = %50
  br label %134

66:                                               ; preds = %50
  %67 = load i32, ptr %16, align 4
  %68 = load i32, ptr %15, align 4
  %69 = icmp eq i32 %67, %68
  br i1 %69, label %70, label %87

70:                                               ; preds = %66
  %71 = load ptr, ptr %11, align 8
  %72 = getelementptr inbounds nuw %struct.config_record_t, ptr %71, i32 0, i32 6
  call void @slurm_xfree(ptr noundef %72)
  %73 = load ptr, ptr %6, align 8
  %74 = icmp ne ptr %73, null
  br i1 %74, label %75, label %86

75:                                               ; preds = %70
  %76 = load ptr, ptr %6, align 8
  %77 = getelementptr inbounds i8, ptr %76, i64 0
  %78 = load i8, ptr %77, align 1
  %79 = sext i8 %78 to i32
  %80 = icmp ne i32 %79, 0
  br i1 %80, label %81, label %86

81:                                               ; preds = %75
  %82 = load ptr, ptr %6, align 8
  %83 = call ptr @xstrdup(ptr noundef %82)
  %84 = load ptr, ptr %11, align 8
  %85 = getelementptr inbounds nuw %struct.config_record_t, ptr %84, i32 0, i32 6
  store ptr %83, ptr %85, align 8
  br label %86

86:                                               ; preds = %81, %75, %70
  br label %133

87:                                               ; preds = %66
  %88 = load ptr, ptr %11, align 8
  %89 = call ptr @_dup_config(ptr noundef %88)
  store ptr %89, ptr %12, align 8
  %90 = load ptr, ptr %13, align 8
  %91 = icmp eq ptr %90, null
  br i1 %91, label %92, label %94

92:                                               ; preds = %87
  %93 = load ptr, ptr %12, align 8
  store ptr %93, ptr %13, align 8
  br label %94

94:                                               ; preds = %92, %87
  %95 = load ptr, ptr %12, align 8
  %96 = getelementptr inbounds nuw %struct.config_record_t, ptr %95, i32 0, i32 6
  call void @slurm_xfree(ptr noundef %96)
  %97 = load ptr, ptr %6, align 8
  %98 = icmp ne ptr %97, null
  br i1 %98, label %99, label %110

99:                                               ; preds = %94
  %100 = load ptr, ptr %6, align 8
  %101 = getelementptr inbounds i8, ptr %100, i64 0
  %102 = load i8, ptr %101, align 1
  %103 = sext i8 %102 to i32
  %104 = icmp ne i32 %103, 0
  br i1 %104, label %105, label %110

105:                                              ; preds = %99
  %106 = load ptr, ptr %6, align 8
  %107 = call ptr @xstrdup(ptr noundef %106)
  %108 = load ptr, ptr %12, align 8
  %109 = getelementptr inbounds nuw %struct.config_record_t, ptr %108, i32 0, i32 6
  store ptr %107, ptr %109, align 8
  br label %110

110:                                              ; preds = %105, %99, %94
  %111 = load ptr, ptr %9, align 8
  %112 = call ptr @bit_copy(ptr noundef %111)
  %113 = load ptr, ptr %12, align 8
  %114 = getelementptr inbounds nuw %struct.config_record_t, ptr %113, i32 0, i32 10
  store ptr %112, ptr %114, align 8
  %115 = load ptr, ptr %9, align 8
  %116 = call ptr @bitmap2node_name(ptr noundef %115)
  %117 = load ptr, ptr %12, align 8
  %118 = getelementptr inbounds nuw %struct.config_record_t, ptr %117, i32 0, i32 11
  store ptr %116, ptr %118, align 8
  %119 = load ptr, ptr %9, align 8
  %120 = load ptr, ptr %12, align 8
  call void @_update_config_ptr(ptr noundef %119, ptr noundef %120)
  %121 = load ptr, ptr %11, align 8
  %122 = getelementptr inbounds nuw %struct.config_record_t, ptr %121, i32 0, i32 10
  %123 = load ptr, ptr %122, align 8
  %124 = load ptr, ptr %9, align 8
  call void @bit_and_not(ptr noundef %123, ptr noundef %124)
  %125 = load ptr, ptr %11, align 8
  %126 = getelementptr inbounds nuw %struct.config_record_t, ptr %125, i32 0, i32 11
  call void @slurm_xfree(ptr noundef %126)
  %127 = load ptr, ptr %11, align 8
  %128 = getelementptr inbounds nuw %struct.config_record_t, ptr %127, i32 0, i32 10
  %129 = load ptr, ptr %128, align 8
  %130 = call ptr @bitmap2node_name(ptr noundef %129)
  %131 = load ptr, ptr %11, align 8
  %132 = getelementptr inbounds nuw %struct.config_record_t, ptr %131, i32 0, i32 11
  store ptr %130, ptr %132, align 8
  br label %133

133:                                              ; preds = %110, %86
  br label %134

134:                                              ; preds = %133, %65
  br label %135

135:                                              ; preds = %134
  %136 = load ptr, ptr %9, align 8
  %137 = icmp ne ptr %136, null
  br i1 %137, label %138, label %139

138:                                              ; preds = %135
  call void @slurm_bit_free(ptr noundef %9)
  br label %139

139:                                              ; preds = %138, %135
  store ptr null, ptr %9, align 8
  br label %140

140:                                              ; preds = %139
  br label %141

141:                                              ; preds = %140
  br label %41, !llvm.loop !22

142:                                              ; preds = %49, %41
  %143 = load ptr, ptr %10, align 8
  call void @list_iterator_destroy(ptr noundef %143)
  %144 = load ptr, ptr @avail_feature_list, align 8
  %145 = icmp ne ptr %144, null
  br i1 %145, label %146, label %150

146:                                              ; preds = %142
  %147 = load ptr, ptr @avail_feature_list, align 8
  %148 = load ptr, ptr %6, align 8
  %149 = load ptr, ptr %8, align 8
  call void @update_feature_list(ptr noundef %147, ptr noundef %148, ptr noundef %149)
  br label %150

150:                                              ; preds = %146, %142
  br label %151

151:                                              ; preds = %150, %3
  %152 = load ptr, ptr %5, align 8
  %153 = load ptr, ptr %6, align 8
  %154 = load i32, ptr %7, align 4
  call void @_update_node_features_post(ptr noundef %152, ptr noundef @update_node_avail_features.last_avail_features, ptr noundef %153, ptr noundef @update_node_avail_features.last_node_bitmap, ptr noundef %8, i32 noundef %154, ptr noundef @.str.53)
  br label %155

155:                                              ; preds = %151
  %156 = load ptr, ptr %8, align 8
  %157 = icmp ne ptr %156, null
  br i1 %157, label %158, label %159

158:                                              ; preds = %155
  call void @slurm_bit_free(ptr noundef %8)
  br label %159

159:                                              ; preds = %158, %155
  store ptr null, ptr %8, align 8
  br label %160

160:                                              ; preds = %159
  br label %161

161:                                              ; preds = %160
  store i32 0, ptr %4, align 4
  store i32 1, ptr %17, align 4
  br label %162

162:                                              ; preds = %161, %36
  call void @llvm.lifetime.end.p0(i64 4, ptr %16) #10
  call void @llvm.lifetime.end.p0(i64 4, ptr %15) #10
  call void @llvm.lifetime.end.p0(i64 4, ptr %14) #10
  call void @llvm.lifetime.end.p0(i64 8, ptr %13) #10
  call void @llvm.lifetime.end.p0(i64 8, ptr %12) #10
  call void @llvm.lifetime.end.p0(i64 8, ptr %11) #10
  call void @llvm.lifetime.end.p0(i64 8, ptr %10) #10
  call void @llvm.lifetime.end.p0(i64 8, ptr %9) #10
  call void @llvm.lifetime.end.p0(i64 8, ptr %8) #10
  %163 = load i32, ptr %4, align 4
  ret i32 %163
}