; Function Attrs: nounwind uwtable
define dso_local i32 @update_node_avail_features(ptr noundef %0, ptr noundef %1, i32 noundef %2) local_unnamed_addr #0 {
  %4 = alloca i32, align 4
  %5 = alloca ptr, align 8
  %6 = alloca ptr, align 8
  call void @llvm.lifetime.start.p0(i64 8, ptr nonnull %5) #15
  store ptr null, ptr %5, align 8
  call void @llvm.lifetime.start.p0(i64 8, ptr nonnull %6) #15
  %7 = icmp slt i32 %2, 2
  br i1 %7, label %8, label %74

8:                                                ; preds = %3
  %9 = call i32 @node_name2bitmap(ptr noundef %0, i1 noundef zeroext false, ptr noundef nonnull %5, ptr noundef null) #15
  %.not = icmp eq i32 %9, 0
  br i1 %.not, label %14, label %10

10:                                               ; preds = %8
  %11 = call i32 @get_log_level() #15
  %12 = icmp sgt i32 %11, 2
  br i1 %12, label %13, label %77

13:                                               ; preds = %10
  call void (i32, ptr, ...) @log_var(i32 noundef 3, ptr noundef nonnull @.str.51, ptr noundef nonnull @__func__.update_node_avail_features, ptr noundef %0) #15
  br label %77

14:                                               ; preds = %8
  %15 = load ptr, ptr @config_list, align 8
  %16 = call ptr @list_iterator_create(ptr noundef %15) #15
  %17 = call ptr @list_next(ptr noundef %16) #15
  %18 = icmp eq ptr %17, null
  br i1 %18, label %._crit_edge, label %.lr.ph

.lr.ph:                                           ; preds = %14
  %.not46 = icmp eq ptr %1, null
  br label %19

19:                                               ; preds = %.lr.ph, %68
  %20 = phi ptr [ %17, %.lr.ph ], [ %69, %68 ]
  %.03854 = phi ptr [ null, %.lr.ph ], [ %.2, %68 ]
  %21 = load ptr, ptr %5, align 8
  %22 = call ptr @bit_copy(ptr noundef %21) #15
  store ptr %22, ptr %6, align 8
  %23 = getelementptr inbounds nuw i8, ptr %20, i64 64
  %24 = load ptr, ptr %23, align 8
  call void @bit_and(ptr noundef %22, ptr noundef %24) #15
  %25 = load ptr, ptr %23, align 8
  %26 = call i32 @bit_set_count(ptr noundef %25) #15
  %27 = load ptr, ptr %6, align 8
  %28 = call i32 @bit_set_count(ptr noundef %27) #15
  %29 = icmp eq i32 %28, 0
  br i1 %29, label %65, label %30

30:                                               ; preds = %19
  %31 = icmp eq i32 %28, %26
  br i1 %31, label %32, label %38

32:                                               ; preds = %30
  %33 = getelementptr inbounds nuw i8, ptr %20, i64 32
  call void @slurm_xfree(ptr noundef nonnull %33) #15
  br i1 %.not46, label %65, label %34

34:                                               ; preds = %32
  %35 = load i8, ptr %1, align 1
  %.not49 = icmp eq i8 %35, 0
  br i1 %.not49, label %65, label %36

36:                                               ; preds = %34
  %37 = call ptr @xstrdup(ptr noundef nonnull %1) #15
  store ptr %37, ptr %33, align 8
  br label %65

38:                                               ; preds = %30
  %39 = call ptr @_dup_config(ptr noundef nonnull %20)
  %40 = icmp eq ptr %.03854, null
  %spec.select = select i1 %40, ptr %39, ptr %.03854
  %41 = getelementptr inbounds nuw i8, ptr %39, i64 32
  call void @slurm_xfree(ptr noundef nonnull %41) #15
  br i1 %.not46, label %46, label %42

42:                                               ; preds = %38
  %43 = load i8, ptr %1, align 1
  %.not47 = icmp eq i8 %43, 0
  br i1 %.not47, label %46, label %44

44:                                               ; preds = %42
  %45 = call ptr @xstrdup(ptr noundef nonnull %1) #15
  store ptr %45, ptr %41, align 8
  br label %46

46:                                               ; preds = %44, %42, %38
  %47 = load ptr, ptr %6, align 8
  %48 = call ptr @bit_copy(ptr noundef %47) #15
  %49 = getelementptr inbounds nuw i8, ptr %39, i64 64
  store ptr %48, ptr %49, align 8
  %50 = load ptr, ptr %6, align 8
  %51 = call ptr @bitmap2node_name(ptr noundef %50) #15
  %52 = getelementptr inbounds nuw i8, ptr %39, i64 72
  store ptr %51, ptr %52, align 8
  %53 = load ptr, ptr %6, align 8
  call void @llvm.lifetime.start.p0(i64 4, ptr nonnull %4) #15
  store i32 0, ptr %4, align 4
  %54 = call ptr @next_node_bitmap(ptr noundef %53, ptr noundef nonnull %4) #15
  %.not3.i = icmp eq ptr %54, null
  br i1 %.not3.i, label %_update_config_ptr.exit, label %.lr.ph.i

.lr.ph.i:                                         ; preds = %46, %.lr.ph.i
  %55 = phi ptr [ %59, %.lr.ph.i ], [ %54, %46 ]
  %56 = getelementptr inbounds nuw i8, ptr %55, i64 72
  store ptr %39, ptr %56, align 8
  %57 = load i32, ptr %4, align 4
  %58 = add nsw i32 %57, 1
  store i32 %58, ptr %4, align 4
  %59 = call ptr @next_node_bitmap(ptr noundef %53, ptr noundef nonnull %4) #15
  %.not.i = icmp eq ptr %59, null
  br i1 %.not.i, label %_update_config_ptr.exit, label %.lr.ph.i, !llvm.loop !21

_update_config_ptr.exit:                          ; preds = %.lr.ph.i, %46
  call void @llvm.lifetime.end.p0(i64 4, ptr nonnull %4) #15
  %60 = load ptr, ptr %23, align 8
  %61 = load ptr, ptr %6, align 8
  call void @bit_and_not(ptr noundef %60, ptr noundef %61) #15
  %62 = getelementptr inbounds nuw i8, ptr %20, i64 72
  call void @slurm_xfree(ptr noundef nonnull %62) #15
  %63 = load ptr, ptr %23, align 8
  %64 = call ptr @bitmap2node_name(ptr noundef %63) #15
  store ptr %64, ptr %62, align 8
  br label %65

65:                                               ; preds = %19, %32, %34, %36, %_update_config_ptr.exit
  %.2 = phi ptr [ %.03854, %19 ], [ %.03854, %36 ], [ %.03854, %34 ], [ %.03854, %32 ], [ %spec.select, %_update_config_ptr.exit ]
  %66 = load ptr, ptr %6, align 8
  %.not50 = icmp eq ptr %66, null
  br i1 %.not50, label %68, label %67

67:                                               ; preds = %65
  call void @slurm_bit_free(ptr noundef nonnull %6) #15
  br label %68

68:                                               ; preds = %67, %65
  store ptr null, ptr %6, align 8
  %69 = call ptr @list_next(ptr noundef %16) #15
  %.not45 = icmp eq ptr %69, null
  %70 = icmp eq ptr %69, %.2
  %or.cond = select i1 %.not45, i1 true, i1 %70
  br i1 %or.cond, label %._crit_edge, label %19, !llvm.loop !22

._crit_edge:                                      ; preds = %68, %14
  call void @list_iterator_destroy(ptr noundef %16) #15
  %71 = load ptr, ptr @avail_feature_list, align 8
  %.not51 = icmp eq ptr %71, null
  br i1 %.not51, label %74, label %72

72:                                               ; preds = %._crit_edge
  %73 = load ptr, ptr %5, align 8
  call void @update_feature_list(ptr noundef nonnull %71, ptr noundef %1, ptr noundef %73) #15
  br label %74

74:                                               ; preds = %._crit_edge, %72, %3
  call fastcc void @_update_node_features_post(ptr noundef %0, ptr noundef nonnull @update_node_avail_features.last_avail_features, ptr noundef %1, ptr noundef nonnull @update_node_avail_features.last_node_bitmap, ptr noundef %5, i32 noundef %2, ptr noundef nonnull @.str.53)
  %75 = load ptr, ptr %5, align 8
  %.not52 = icmp eq ptr %75, null
  br i1 %.not52, label %77, label %76

76:                                               ; preds = %74
  call void @slurm_bit_free(ptr noundef nonnull %5) #15
  br label %77

77:                                               ; preds = %74, %76, %10, %13
  %.0 = phi i32 [ %9, %13 ], [ %9, %10 ], [ 0, %76 ], [ 0, %74 ]
  call void @llvm.lifetime.end.p0(i64 8, ptr nonnull %6) #15
  call void @llvm.lifetime.end.p0(i64 8, ptr nonnull %5) #15
  ret i32 %.0
}